; Function Attrs: mustprogress nofree norecurse nosync nounwind willreturn memory(argmem: readwrite) uwtable
define range(i32 -98, 1) i32 @sp_set_bit(ptr noundef captures(address_is_null) %0, i32 noundef %1) local_unnamed_addr #3 {
  %3 = lshr i32 %1, 6
  %4 = icmp eq ptr %0, null
  %5 = icmp slt i32 %1, 0
  %or.cond = or i1 %4, %5
  br i1 %or.cond, label %38, label %6

6:                                                ; preds = %2
  %7 = and i32 %3, 65535
  %8 = getelementptr inbounds nuw i8, ptr %0, i64 2
  %9 = load i16, ptr %8, align 2, !tbaa !10
  %10 = zext i16 %9 to i32
  %.not = icmp samesign ult i32 %7, %10
  br i1 %.not, label %11, label %38

11:                                               ; preds = %6
  %12 = and i32 %1, 63
  %13 = load i16, ptr %0, align 8, !tbaa !12
  %14 = zext i16 %13 to i32
  %.not2429 = icmp samesign ult i32 %7, %14
  br i1 %.not2429, label %._crit_edge.thread, label %22

._crit_edge.thread:                               ; preds = %11
  %15 = zext nneg i32 %12 to i64
  %16 = shl nuw i64 1, %15
  %17 = getelementptr inbounds nuw i8, ptr %0, i64 8
  %18 = zext nneg i32 %7 to i64
  %19 = getelementptr inbounds nuw [129 x i64], ptr %17, i64 0, i64 %18
  %20 = load i64, ptr %19, align 8, !tbaa !8
  %21 = or i64 %20, %16
  store i64 %21, ptr %19, align 8, !tbaa !8
  br label %38

22:                                               ; preds = %11
  %23 = zext i16 %13 to i64
  %24 = shl nuw nsw i64 %23, 3
  %25 = getelementptr i8, ptr %0, i64 %24
  %scevgep = getelementptr i8, ptr %25, i64 8
  %26 = sub nuw nsw i32 %7, %14
  %27 = shl nuw nsw i32 %26, 3
  %narrow = add nuw nsw i32 %27, 8
  %28 = zext nneg i32 %narrow to i64
  tail call void @llvm.memset.p0.i64(ptr noundef nonnull align 8 dereferenceable(1) %scevgep, i8 0, i64 %28, i1 false), !tbaa !8
  %29 = zext nneg i32 %12 to i64
  %30 = shl nuw i64 1, %29
  %31 = getelementptr inbounds nuw i8, ptr %0, i64 8
  %32 = zext nneg i32 %7 to i64
  %33 = getelementptr inbounds nuw [129 x i64], ptr %31, i64 0, i64 %32
  %34 = load i64, ptr %33, align 8, !tbaa !8
  %35 = or i64 %34, %30
  store i64 %35, ptr %33, align 8, !tbaa !8
  %36 = trunc i32 %3 to i16
  %37 = add i16 %36, 1
  store i16 %37, ptr %0, align 8, !tbaa !12
  br label %38

38:                                               ; preds = %._crit_edge.thread, %6, %2, %22
  %.02127 = phi i32 [ 0, %22 ], [ -98, %2 ], [ -98, %6 ], [ 0, %._crit_edge.thread ]
  ret i32 %.02127
}